; Function Attrs: nounwind uwtable
define range(i32 -40, 1) i32 @IDAGetSensErrWeights(ptr noundef %0, ptr noundef readonly captures(none) %1) local_unnamed_addr #0 {
  %3 = icmp eq ptr %0, null
  br i1 %3, label %4, label %5

4:                                                ; preds = %2
  tail call void (ptr, i32, i32, ptr, ptr, ptr, ...) @IDAProcessError(ptr noundef null, i32 noundef -20, i32 noundef 2060, ptr noundef nonnull @__func__.IDAGetSensErrWeights, ptr noundef nonnull @.str, ptr noundef nonnull @.str.1) #9
  br label %.loopexit

5:                                                ; preds = %2
  %6 = getelementptr inbounds nuw i8, ptr %0, i64 156
  %7 = load i32, ptr %6, align 4
  %8 = icmp eq i32 %7, 0
  br i1 %8, label %13, label %.preheader

.preheader:                                       ; preds = %5
  %9 = getelementptr inbounds nuw i8, ptr %0, i64 160
  %10 = load i32, ptr %9, align 8
  %11 = icmp sgt i32 %10, 0
  br i1 %11, label %.lr.ph, label %.loopexit

.lr.ph:                                           ; preds = %.preheader
  %12 = getelementptr inbounds nuw i8, ptr %0, i64 896
  br label %14

13:                                               ; preds = %5
  tail call void (ptr, i32, i32, ptr, ptr, ptr, ...) @IDAProcessError(ptr noundef nonnull %0, i32 noundef -40, i32 noundef 2068, ptr noundef nonnull @__func__.IDAGetSensErrWeights, ptr noundef nonnull @.str, ptr noundef nonnull @.str.21) #9
  br label %.loopexit

14:                                               ; preds = %.lr.ph, %14
  %indvars.iv = phi i64 [ 0, %.lr.ph ], [ %indvars.iv.next, %14 ]
  %15 = load ptr, ptr %12, align 8
  %16 = getelementptr inbounds nuw ptr, ptr %15, i64 %indvars.iv
  %17 = load ptr, ptr %16, align 8
  %18 = getelementptr inbounds nuw ptr, ptr %1, i64 %indvars.iv
  %19 = load ptr, ptr %18, align 8
  tail call void @N_VScale(double noundef 1.000000e+00, ptr noundef %17, ptr noundef %19) #9
  %indvars.iv.next = add nuw nsw i64 %indvars.iv, 1
  %20 = load i32, ptr %9, align 8
  %21 = sext i32 %20 to i64
  %22 = icmp slt i64 %indvars.iv.next, %21
  br i1 %22, label %14, label %.loopexit

.loopexit:                                        ; preds = %14, %.preheader, %13, %4
  %.011 = phi i32 [ -20, %4 ], [ -40, %13 ], [ 0, %.preheader ], [ 0, %14 ]
  ret i32 %.011
}